; Function Attrs: mustprogress uwtable
define noundef i32 @_ZNK2mu10ParserBase20GetOprtAssociativityERKNS_11ParserTokenIdNSt7__cxx1112basic_stringIcSt11char_traitsIcESaIcEEEEE(ptr nocapture nonnull readnone align 8 %0, ptr nocapture noundef nonnull readonly align 8 dereferenceable(104) %1) local_unnamed_addr #7 align 2 personality ptr @__gxx_personality_v0 {
  %3 = getelementptr inbounds i8, ptr %1, i64 96
  %4 = load ptr, ptr %3, align 8
  %.not.i = icmp eq ptr %4, null
  br i1 %.not.i, label %7, label %5

5:                                                ; preds = %2
  %6 = tail call noundef i32 @_ZNK2mu14ParserCallback7GetCodeEv(ptr noundef nonnull align 8 dereferenceable(32) %4)
  br label %_ZNK2mu11ParserTokenIdNSt7__cxx1112basic_stringIcSt11char_traitsIcESaIcEEEE7GetCodeEv.exit

7:                                                ; preds = %2
  %8 = load i32, ptr %1, align 8
  br label %_ZNK2mu11ParserTokenIdNSt7__cxx1112basic_stringIcSt11char_traitsIcESaIcEEEE7GetCodeEv.exit

_ZNK2mu11ParserTokenIdNSt7__cxx1112basic_stringIcSt11char_traitsIcESaIcEEEE7GetCodeEv.exit: ; preds = %5, %7
  %.0.i = phi i32 [ %6, %5 ], [ %8, %7 ]
  switch i32 %.0.i, label %22 [
    i32 13, label %23
    i32 11, label %23
    i32 12, label %23
    i32 4, label %23
    i32 5, label %23
    i32 0, label %23
    i32 1, label %23
    i32 2, label %23
    i32 3, label %23
    i32 6, label %23
    i32 7, label %23
    i32 8, label %23
    i32 9, label %23
    i32 10, label %9
    i32 30, label %10
  ]

9:                                                ; preds = %_ZNK2mu11ParserTokenIdNSt7__cxx1112basic_stringIcSt11char_traitsIcESaIcEEEE7GetCodeEv.exit
  br label %23

10:                                               ; preds = %_ZNK2mu11ParserTokenIdNSt7__cxx1112basic_stringIcSt11char_traitsIcESaIcEEEE7GetCodeEv.exit
  %11 = load ptr, ptr %3, align 8
  %12 = icmp eq ptr %11, null
  br i1 %12, label %15, label %13

13:                                               ; preds = %10
  %14 = tail call noundef i32 @_ZNK2mu14ParserCallback7GetCodeEv(ptr noundef nonnull align 8 dereferenceable(32) %11)
  %.not.i2 = icmp eq i32 %14, 30
  br i1 %.not.i2, label %_ZNK2mu11ParserTokenIdNSt7__cxx1112basic_stringIcSt11char_traitsIcESaIcEEEE16GetAssociativityEv.exit, label %15

15:                                               ; preds = %13, %10
  %16 = tail call ptr @__cxa_allocate_exception(i64 112) #23
  invoke void @_ZN2mu11ParserErrorC1ENS_11EErrorCodesE(ptr noundef nonnull align 8 dereferenceable(112) %16, i32 noundef 39)
          to label %17 unwind label %18

17:                                               ; preds = %15
  tail call void @__cxa_throw(ptr nonnull %16, ptr nonnull @_ZTIN2mu11ParserErrorE, ptr nonnull @_ZN2mu11ParserErrorD1Ev) #32
  unreachable

18:                                               ; preds = %15
  %19 = landingpad { ptr, i32 }
          cleanup
  tail call void @__cxa_free_exception(ptr %16) #23
  resume { ptr, i32 } %19

_ZNK2mu11ParserTokenIdNSt7__cxx1112basic_stringIcSt11char_traitsIcESaIcEEEE16GetAssociativityEv.exit: ; preds = %13
  %20 = load ptr, ptr %3, align 8
  %21 = tail call noundef i32 @_ZNK2mu14ParserCallback16GetAssociativityEv(ptr noundef nonnull align 8 dereferenceable(32) %20)
  br label %23

22:                                               ; preds = %_ZNK2mu11ParserTokenIdNSt7__cxx1112basic_stringIcSt11char_traitsIcESaIcEEEE7GetCodeEv.exit
  br label %23

23:                                               ; preds = %_ZNK2mu11ParserTokenIdNSt7__cxx1112basic_stringIcSt11char_traitsIcESaIcEEEE7GetCodeEv.exit, %_ZNK2mu11ParserTokenIdNSt7__cxx1112basic_stringIcSt11char_traitsIcESaIcEEEE7GetCodeEv.exit, %_ZNK2mu11ParserTokenIdNSt7__cxx1112basic_stringIcSt11char_traitsIcESaIcEEEE7GetCodeEv.exit, %_ZNK2mu11ParserTokenIdNSt7__cxx1112basic_stringIcSt11char_traitsIcESaIcEEEE7GetCodeEv.exit, %_ZNK2mu11ParserTokenIdNSt7__cxx1112basic_stringIcSt11char_traitsIcESaIcEEEE7GetCodeEv.exit, %_ZNK2mu11ParserTokenIdNSt7__cxx1112basic_stringIcSt11char_traitsIcESaIcEEEE7GetCodeEv.exit, %_ZNK2mu11ParserTokenIdNSt7__cxx1112basic_stringIcSt11char_traitsIcESaIcEEEE7GetCodeEv.exit, %_ZNK2mu11ParserTokenIdNSt7__cxx1112basic_stringIcSt11char_traitsIcESaIcEEEE7GetCodeEv.exit, %_ZNK2mu11ParserTokenIdNSt7__cxx1112basic_stringIcSt11char_traitsIcESaIcEEEE7GetCodeEv.exit, %_ZNK2mu11ParserTokenIdNSt7__cxx1112basic_stringIcSt11char_traitsIcESaIcEEEE7GetCodeEv.exit, %_ZNK2mu11ParserTokenIdNSt7__cxx1112basic_stringIcSt11char_traitsIcESaIcEEEE7GetCodeEv.exit, %_ZNK2mu11ParserTokenIdNSt7__cxx1112basic_stringIcSt11char_traitsIcESaIcEEEE7GetCodeEv.exit, %_ZNK2mu11ParserTokenIdNSt7__cxx1112basic_stringIcSt11char_traitsIcESaIcEEEE7GetCodeEv.exit, %22, %_ZNK2mu11ParserTokenIdNSt7__cxx1112basic_stringIcSt11char_traitsIcESaIcEEEE16GetAssociativityEv.exit, %9
  %.0 = phi i32 [ 2, %22 ], [ %21, %_ZNK2mu11ParserTokenIdNSt7__cxx1112basic_stringIcSt11char_traitsIcESaIcEEEE16GetAssociativityEv.exit ], [ 1, %9 ], [ 0, %_ZNK2mu11ParserTokenIdNSt7__cxx1112basic_stringIcSt11char_traitsIcESaIcEEEE7GetCodeEv.exit ], [ 0, %_ZNK2mu11ParserTokenIdNSt7__cxx1112basic_stringIcSt11char_traitsIcESaIcEEEE7GetCodeEv.exit ], [ 0, %_ZNK2mu11ParserTokenIdNSt7__cxx1112basic_stringIcSt11char_traitsIcESaIcEEEE7GetCodeEv.exit ], [ 0, %_ZNK2mu11ParserTokenIdNSt7__cxx1112basic_stringIcSt11char_traitsIcESaIcEEEE7GetCodeEv.exit ], [ 0, %_ZNK2mu11ParserTokenIdNSt7__cxx1112basic_stringIcSt11char_traitsIcESaIcEEEE7GetCodeEv.exit ], [ 0, %_ZNK2mu11ParserTokenIdNSt7__cxx1112basic_stringIcSt11char_traitsIcESaIcEEEE7GetCodeEv.exit ], [ 0, %_ZNK2mu11ParserTokenIdNSt7__cxx1112basic_stringIcSt11char_traitsIcESaIcEEEE7GetCodeEv.exit ], [ 0, %_ZNK2mu11ParserTokenIdNSt7__cxx1112basic_stringIcSt11char_traitsIcESaIcEEEE7GetCodeEv.exit ], [ 0, %_ZNK2mu11ParserTokenIdNSt7__cxx1112basic_stringIcSt11char_traitsIcESaIcEEEE7GetCodeEv.exit ], [ 0, %_ZNK2mu11ParserTokenIdNSt7__cxx1112basic_stringIcSt11char_traitsIcESaIcEEEE7GetCodeEv.exit ], [ 0, %_ZNK2mu11ParserTokenIdNSt7__cxx1112basic_stringIcSt11char_traitsIcESaIcEEEE7GetCodeEv.exit ], [ 0, %_ZNK2mu11ParserTokenIdNSt7__cxx1112basic_stringIcSt11char_traitsIcESaIcEEEE7GetCodeEv.exit ], [ 0, %_ZNK2mu11ParserTokenIdNSt7__cxx1112basic_stringIcSt11char_traitsIcESaIcEEEE7GetCodeEv.exit ]
  ret i32 %.0
}